; Function Attrs: mustprogress nounwind uwtable
define hidden void @_ZN11ZForwarding30in_place_relocation_claim_pageEv(ptr noundef nonnull align 8 dereferenceable(184) %0) local_unnamed_addr #0 align 2 {
  %2 = getelementptr inbounds i8, ptr %0, i64 136
  br label %3

3:                                                ; preds = %3, %1
  %4 = load volatile i32, ptr %2, align 8
  %5 = sub nsw i32 0, %4
  %6 = tail call noundef i32 asm sideeffect "lock cmpxchgl $1,($3)", "={ax},r,{ax},r,~{cc},~{memory},~{dirflag},~{fpsr},~{flags}"(i32 %5, i32 %4, ptr nonnull %2) #13, !srcloc !8
  %.not = icmp eq i32 %6, %4
  br i1 %.not, label %7, label %3, !llvm.loop !11

7:                                                ; preds = %3
  %.not4 = icmp eq i32 %4, 1
  br i1 %.not4, label %15, label %8

8:                                                ; preds = %7
  %9 = getelementptr inbounds i8, ptr %0, i64 48
  %10 = tail call i32 @pthread_mutex_lock(ptr noundef nonnull %9) #13
  %11 = load volatile i32, ptr %2, align 8
  tail call void asm sideeffect "", "~{memory},~{dirflag},~{fpsr},~{flags}"() #13, !srcloc !7
  %.not57 = icmp eq i32 %11, -1
  br i1 %.not57, label %_ZN7ZLockerI14ZConditionLockED2Ev.exit, label %.lr.ph

.lr.ph:                                           ; preds = %8, %.lr.ph
  %12 = tail call noundef i32 @_ZN15PlatformMonitor4waitEm(ptr noundef nonnull align 8 dereferenceable(88) %9, i64 noundef 0) #13
  %13 = load volatile i32, ptr %2, align 8
  tail call void asm sideeffect "", "~{memory},~{dirflag},~{fpsr},~{flags}"() #13, !srcloc !7
  %.not5 = icmp eq i32 %13, -1
  br i1 %.not5, label %_ZN7ZLockerI14ZConditionLockED2Ev.exit, label %.lr.ph, !llvm.loop !12

_ZN7ZLockerI14ZConditionLockED2Ev.exit:           ; preds = %.lr.ph, %8
  %14 = tail call i32 @pthread_mutex_unlock(ptr noundef nonnull %9) #13
  br label %15

15:                                               ; preds = %7, %_ZN7ZLockerI14ZConditionLockED2Ev.exit
  ret void
}